target datalayout = "e-m:e-p270:32:32-p271:32:32-p272:64:64-i64:64-i128:128-f80:128-n8:16:32:64-S128"
target triple = "x86_64-pc-linux-gnu"

%"class.std::__cxx11::basic_string" = type { %"struct.std::__cxx11::basic_string<char>::_Alloc_hider", i64, %union.anon }
%"struct.std::__cxx11::basic_string<char>::_Alloc_hider" = type { ptr }
%union.anon = type { i64, [8 x i8] }
%"class.nix::Config" = type { %"class.nix::AbstractConfig", %"class.std::map.7" }
%"class.nix::AbstractConfig" = type { ptr, %"class.std::map" }
%"class.std::map" = type { %"class.std::_Rb_tree.3" }
%"class.std::_Rb_tree.3" = type { %"struct.std::_Rb_tree<std::__cxx11::basic_string<char>, std::pair<const std::__cxx11::basic_string<char>, std::__cxx11::basic_string<char>>, std::_Select1st<std::pair<const std::__cxx11::basic_string<char>, std::__cxx11::basic_string<char>>>, std::less<std::__cxx11::basic_string<char>>>::_Rb_tree_impl" }
%"struct.std::_Rb_tree<std::__cxx11::basic_string<char>, std::pair<const std::__cxx11::basic_string<char>, std::__cxx11::basic_string<char>>, std::_Select1st<std::pair<const std::__cxx11::basic_string<char>, std::__cxx11::basic_string<char>>>, std::less<std::__cxx11::basic_string<char>>>::_Rb_tree_impl" = type { %"struct.std::_Rb_tree_key_compare", %"struct.std::_Rb_tree_header" }
%"struct.std::_Rb_tree_key_compare" = type { %"struct.std::less" }
%"struct.std::less" = type { i8 }
%"struct.std::_Rb_tree_header" = type { %"struct.std::_Rb_tree_node_base", i64 }
%"struct.std::_Rb_tree_node_base" = type { i32, ptr, ptr, ptr }
%"class.std::map.7" = type { %"class.std::_Rb_tree.8" }
%"class.std::_Rb_tree.8" = type { %"struct.std::_Rb_tree<std::__cxx11::basic_string<char>, std::pair<const std::__cxx11::basic_string<char>, nix::Config::SettingData>, std::_Select1st<std::pair<const std::__cxx11::basic_string<char>, nix::Config::SettingData>>, std::less<std::__cxx11::basic_string<char>>>::_Rb_tree_impl" }
%"struct.std::_Rb_tree<std::__cxx11::basic_string<char>, std::pair<const std::__cxx11::basic_string<char>, nix::Config::SettingData>, std::_Select1st<std::pair<const std::__cxx11::basic_string<char>, nix::Config::SettingData>>, std::less<std::__cxx11::basic_string<char>>>::_Rb_tree_impl" = type { %"struct.std::_Rb_tree_key_compare", %"struct.std::_Rb_tree_header" }
%"class.nix::AbstractSetting" = type { ptr, %"class.std::__cxx11::basic_string", %"class.std::__cxx11::basic_string", %"class.std::set", i32, i8, [3 x i8], %"class.std::optional" }
%"class.std::set" = type { %"class.std::_Rb_tree" }
%"class.std::_Rb_tree" = type { %"struct.std::_Rb_tree<std::__cxx11::basic_string<char>, std::__cxx11::basic_string<char>, std::_Identity<std::__cxx11::basic_string<char>>, std::less<std::__cxx11::basic_string<char>>>::_Rb_tree_impl" }
%"struct.std::_Rb_tree<std::__cxx11::basic_string<char>, std::__cxx11::basic_string<char>, std::_Identity<std::__cxx11::basic_string<char>>, std::less<std::__cxx11::basic_string<char>>>::_Rb_tree_impl" = type { %"struct.std::_Rb_tree_key_compare", %"struct.std::_Rb_tree_header" }
%"class.std::optional" = type { %"struct.std::_Optional_base" }
%"struct.std::_Optional_base" = type { %"struct.std::_Optional_payload" }
%"struct.std::_Optional_payload" = type { %"struct.std::_Optional_payload_base.base", [3 x i8] }
%"struct.std::_Optional_payload_base.base" = type <{ %"union.std::_Optional_payload_base<nix::ExperimentalFeature>::_Storage", i8 }>
%"union.std::_Optional_payload_base<nix::ExperimentalFeature>::_Storage" = type { i32 }
%"class.nix::OptionalPathSetting" = type { %"class.nix::BaseSetting.base.33", [7 x i8] }
%"class.nix::BaseSetting.base.33" = type <{ %"class.nix::AbstractSetting", %"class.std::optional.23", %"class.std::optional.23", i8 }>
%"class.std::optional.23" = type { %"struct.std::_Optional_base.24" }
%"struct.std::_Optional_base.24" = type { %"struct.std::_Optional_payload.26" }
%"struct.std::_Optional_payload.26" = type { %"struct.std::_Optional_payload.base.30", [7 x i8] }
%"struct.std::_Optional_payload.base.30" = type { %"struct.std::_Optional_payload_base.base.29" }
%"struct.std::_Optional_payload_base.base.29" = type <{ %"union.std::_Optional_payload_base<std::__cxx11::basic_string<char>>::_Storage", i8 }>
%"union.std::_Optional_payload_base<std::__cxx11::basic_string<char>>::_Storage" = type { %"class.std::__cxx11::basic_string" }
%"class.nix::Setting.18" = type { %"class.nix::BaseSetting.base.20", [7 x i8] }
%"class.nix::BaseSetting.base.20" = type <{ %"class.nix::AbstractSetting", %"class.std::set", %"class.std::set", i8 }>
%"class.nix::Setting" = type { %"class.nix::BaseSetting.base", [5 x i8] }
%"class.nix::BaseSetting.base" = type <{ %"class.nix::AbstractSetting", i8, i8, i8 }>
%"class.nix::BaseSetting.base.13" = type <{ %"class.nix::AbstractSetting", %"class.std::__cxx11::basic_string", %"class.std::__cxx11::basic_string", i8 }>
%"class.nix::PathSetting" = type { %"class.nix::BaseSetting.base.13", [7 x i8] }
%"struct.nix::StoreConfig" = type { %"struct.nix::StoreDirConfig", %"class.nix::Setting.14", %"class.nix::Setting", %"class.nix::Setting.14", %"class.nix::Setting", %"class.nix::Setting.18" }
%"struct.nix::StoreDirConfig" = type { %"class.nix::Config", %"class.nix::PathSetting", %"class.std::__cxx11::basic_string" }
%"class.nix::Setting.14" = type { %"class.nix::BaseSetting.base.16", [7 x i8] }
%"class.nix::BaseSetting.base.16" = type <{ %"class.nix::AbstractSetting", i32, i32, i8 }>
%"struct.nix::LocalFSStoreConfig" = type { ptr, %"class.nix::OptionalPathSetting", %"class.nix::PathSetting", %"class.nix::PathSetting", %"class.nix::PathSetting", %"struct.nix::StoreConfig" }
%"class.nix::BaseSetting.12" = type <{ %"class.nix::AbstractSetting", %"class.std::__cxx11::basic_string", %"class.std::__cxx11::basic_string", i8, [7 x i8] }>
%struct.statvfs = type { i64, i64, i64, i64, i64, i64, i64, i64, i64, i64, i64, [6 x i32] }

@_ZTIN3nix8SysErrorE = linkonce_odr constant { ptr, ptr, ptr } { ptr getelementptr inbounds (ptr, ptr @_ZTVN10__cxxabiv120__si_class_type_infoE, i64 2), ptr @_ZTSN3nix8SysErrorE, ptr @_ZTIN3nix11SystemErrorE }, comdat, align 8
@.str.94 = private unnamed_addr constant [45 x i8] c"getting info about the Nix store mount point\00", align 1
@.str.95 = private unnamed_addr constant [5 x i8] c"none\00", align 1
@.str.96 = private unnamed_addr constant [24 x i8] c"remounting %1% writable\00", align 1

; Function Attrs: mustprogress nounwind uwtable
define linkonce_odr noundef ptr @_ZNKSt7__cxx1112basic_stringIcSt11char_traitsIcESaIcEE7_M_dataEv(ptr noundef nonnull align 8 dereferenceable(32) %0) #2 comdat align 2 {
  %2 = alloca ptr, align 8
  store ptr %0, ptr %2, align 8
  %3 = load ptr, ptr %2, align 8
  %4 = getelementptr inbounds %"class.std::__cxx11::basic_string", ptr %3, i32 0, i32 0
  %5 = getelementptr inbounds %"struct.std::__cxx11::basic_string<char>::_Alloc_hider", ptr %4, i32 0, i32 0
  %6 = load ptr, ptr %5, align 8
  ret ptr %6
}

; Function Attrs: mustprogress nounwind uwtable
define linkonce_odr noundef ptr @_ZNKSt7__cxx1112basic_stringIcSt11char_traitsIcESaIcEE5c_strEv(ptr noundef nonnull align 8 dereferenceable(32) %0) #2 comdat align 2 {
  %2 = alloca ptr, align 8
  store ptr %0, ptr %2, align 8
  %3 = load ptr, ptr %2, align 8
  %4 = call noundef ptr @_ZNKSt7__cxx1112basic_stringIcSt11char_traitsIcESaIcEE7_M_dataEv(ptr noundef nonnull align 8 dereferenceable(32) %3)
  ret ptr %4
}

; Function Attrs: mustprogress nounwind uwtable
define linkonce_odr noundef nonnull align 8 dereferenceable(32) ptr @_ZNK3nix11BaseSettingINSt7__cxx1112basic_stringIcSt11char_traitsIcESaIcEEEE3getEv(ptr noundef nonnull align 8 dereferenceable(201) %0) #2 comdat align 2 {
  %2 = alloca ptr, align 8
  store ptr %0, ptr %2, align 8
  %3 = load ptr, ptr %2, align 8
  %4 = getelementptr inbounds %"class.nix::BaseSetting.12", ptr %3, i32 0, i32 1
  ret ptr %4
}

; Function Attrs: mustprogress uwtable
define void @_ZN3nix10LocalStore17makeStoreWritableEv(ptr noundef nonnull align 8 dereferenceable(504) %0) #5 align 2 personality ptr @__gxx_personality_v0 {
  %2 = alloca ptr, align 8
  %3 = alloca %struct.statvfs, align 8
  %4 = alloca ptr, align 8
  %5 = alloca i32, align 4
  store ptr %0, ptr %2, align 8
  %6 = load ptr, ptr %2, align 8
  %7 = call i32 @getuid() #1
  %8 = icmp ne i32 %7, 0
  br i1 %8, label %9, label %10

9:                                                ; preds = %1
  br label %55

10:                                               ; preds = %1
  %11 = load ptr, ptr %6, align 8
  %12 = getelementptr i8, ptr %11, i64 -64
  %13 = load i64, ptr %12, align 8
  %14 = getelementptr inbounds i8, ptr %6, i64 %13
  %15 = getelementptr inbounds %"struct.nix::LocalFSStoreConfig", ptr %14, i32 0, i32 4
  %16 = call noundef nonnull align 8 dereferenceable(32) ptr @_ZNK3nix11BaseSettingINSt7__cxx1112basic_stringIcSt11char_traitsIcESaIcEEEE3getEv(ptr noundef nonnull align 8 dereferenceable(201) %15)
  %17 = call noundef ptr @_ZNKSt7__cxx1112basic_stringIcSt11char_traitsIcESaIcEE5c_strEv(ptr noundef nonnull align 8 dereferenceable(32) %16) #1
  %18 = call i32 @statvfs(ptr noundef %17, ptr noundef %3) #1
  %19 = icmp ne i32 %18, 0
  br i1 %19, label %20, label %27

20:                                               ; preds = %10
  %21 = call ptr @__cxa_allocate_exception(i64 384) #1
  invoke void @_ZN3nix8SysErrorC2IJA45_cEEEDpRKT_(ptr noundef nonnull align 8 dereferenceable(380) %21, ptr noundef nonnull align 1 dereferenceable(45) @.str.94)
          to label %22 unwind label %23

22:                                               ; preds = %20
  call void @__cxa_throw(ptr %21, ptr @_ZTIN3nix8SysErrorE, ptr @_ZN3nix8SysErrorD2Ev) #22
  unreachable

23:                                               ; preds = %20
  %24 = landingpad { ptr, i32 }
          cleanup
  %25 = extractvalue { ptr, i32 } %24, 0
  store ptr %25, ptr %4, align 8
  %26 = extractvalue { ptr, i32 } %24, 1
  store i32 %26, ptr %5, align 4
  call void @__cxa_free_exception(ptr %21) #1
  br label %56

27:                                               ; preds = %10
  %28 = getelementptr inbounds %struct.statvfs, ptr %3, i32 0, i32 9
  %29 = load i64, ptr %28, align 8
  %30 = and i64 %29, 1
  %31 = icmp ne i64 %30, 0
  br i1 %31, label %32, label %55

32:                                               ; preds = %27
  %33 = load ptr, ptr %6, align 8
  %34 = getelementptr i8, ptr %33, i64 -64
  %35 = load i64, ptr %34, align 8
  %36 = getelementptr inbounds i8, ptr %6, i64 %35
  %37 = getelementptr inbounds %"struct.nix::LocalFSStoreConfig", ptr %36, i32 0, i32 4
  %38 = call noundef nonnull align 8 dereferenceable(32) ptr @_ZNK3nix11BaseSettingINSt7__cxx1112basic_stringIcSt11char_traitsIcESaIcEEEE3getEv(ptr noundef nonnull align 8 dereferenceable(201) %37)
  %39 = call noundef ptr @_ZNKSt7__cxx1112basic_stringIcSt11char_traitsIcESaIcEE5c_strEv(ptr noundef nonnull align 8 dereferenceable(32) %38) #1
  %40 = call i32 @mount(ptr noundef null, ptr noundef %39, ptr noundef @.str.95, i64 noundef 4128, ptr noundef null) #1
  %41 = icmp eq i32 %40, -1
  br i1 %41, label %42, label %54

42:                                               ; preds = %32
  %43 = call ptr @__cxa_allocate_exception(i64 384) #1
  %44 = load ptr, ptr %6, align 8
  %45 = getelementptr i8, ptr %44, i64 -64
  %46 = load i64, ptr %45, align 8
  %47 = getelementptr inbounds i8, ptr %6, i64 %46
  %48 = getelementptr inbounds %"struct.nix::LocalFSStoreConfig", ptr %47, i32 0, i32 4
  invoke void @_ZN3nix8SysErrorC2IJA24_cNS_11PathSettingEEEEDpRKT_(ptr noundef nonnull align 8 dereferenceable(380) %43, ptr noundef nonnull align 1 dereferenceable(24) @.str.96, ptr noundef nonnull align 8 dereferenceable(201) %48)
          to label %49 unwind label %50

49:                                               ; preds = %42
  call void @__cxa_throw(ptr %43, ptr @_ZTIN3nix8SysErrorE, ptr @_ZN3nix8SysErrorD2Ev) #22
  unreachable

50:                                               ; preds = %42
  %51 = landingpad { ptr, i32 }
          cleanup
  %52 = extractvalue { ptr, i32 } %51, 0
  store ptr %52, ptr %4, align 8
  %53 = extractvalue { ptr, i32 } %51, 1
  store i32 %53, ptr %5, align 4
  call void @__cxa_free_exception(ptr %43) #1
  br label %56

54:                                               ; preds = %32
  br label %55

55:                                               ; preds = %54, %27, %9
  ret void

56:                                               ; preds = %50, %23
  %57 = load ptr, ptr %4, align 8
  %58 = load i32, ptr %5, align 4
  %59 = insertvalue { ptr, i32 } poison, ptr %57, 0
  %60 = insertvalue { ptr, i32 } %59, i32 %58, 1
  resume { ptr, i32 } %60
}