; Function Attrs: mustprogress uwtable
define void @_ZN3nix10LocalStore17makeStoreWritableEv(ptr noundef nonnull align 8 dereferenceable(504) %0) local_unnamed_addr #5 align 2 personality ptr @__gxx_personality_v0 {
  %2 = alloca %struct.statvfs, align 8
  %3 = tail call i32 @getuid() #33
  %.not = icmp eq i32 %3, 0
  br i1 %.not, label %4, label %40

4:                                                ; preds = %1
  %5 = load ptr, ptr %0, align 8
  %6 = getelementptr i8, ptr %5, i64 -64
  %7 = load i64, ptr %6, align 8
  %8 = getelementptr inbounds i8, ptr %0, i64 %7
  %9 = getelementptr inbounds i8, ptr %8, i64 784
  %10 = load ptr, ptr %9, align 8
  %11 = call i32 @statvfs(ptr noundef %10, ptr noundef nonnull %2) #33
  %.not3 = icmp eq i32 %11, 0
  br i1 %.not3, label %17, label %12

12:                                               ; preds = %4
  %13 = tail call ptr @__cxa_allocate_exception(i64 384) #33
  invoke void @_ZN3nix8SysErrorC2IJA45_cEEEDpRKT_(ptr noundef nonnull align 8 dereferenceable(380) %13, ptr noundef nonnull align 1 dereferenceable(45) @.str.94)
          to label %14 unwind label %15

14:                                               ; preds = %12
  tail call void @__cxa_throw(ptr nonnull %13, ptr nonnull @_ZTIN3nix8SysErrorE, ptr nonnull @_ZN3nix8SysErrorD2Ev) #34
  unreachable

15:                                               ; preds = %12
  %16 = landingpad { ptr, i32 }
          cleanup
  br label %41

17:                                               ; preds = %4
  %18 = getelementptr inbounds i8, ptr %2, i64 72
  %19 = load i64, ptr %18, align 8
  %20 = and i64 %19, 1
  %.not4 = icmp eq i64 %20, 0
  br i1 %.not4, label %40, label %21

21:                                               ; preds = %17
  %22 = load ptr, ptr %0, align 8
  %23 = getelementptr i8, ptr %22, i64 -64
  %24 = load i64, ptr %23, align 8
  %25 = getelementptr inbounds i8, ptr %0, i64 %24
  %26 = getelementptr inbounds i8, ptr %25, i64 784
  %27 = load ptr, ptr %26, align 8
  %28 = tail call i32 @mount(ptr noundef null, ptr noundef %27, ptr noundef nonnull @.str.95, i64 noundef 4128, ptr noundef null) #33
  %29 = icmp eq i32 %28, -1
  br i1 %29, label %30, label %40

30:                                               ; preds = %21
  %31 = tail call ptr @__cxa_allocate_exception(i64 384) #33
  %32 = load ptr, ptr %0, align 8
  %33 = getelementptr i8, ptr %32, i64 -64
  %34 = load i64, ptr %33, align 8
  %35 = getelementptr inbounds i8, ptr %0, i64 %34
  %36 = getelementptr inbounds i8, ptr %35, i64 648
  invoke void @_ZN3nix8SysErrorC2IJA24_cNS_11PathSettingEEEEDpRKT_(ptr noundef nonnull align 8 dereferenceable(380) %31, ptr noundef nonnull align 1 dereferenceable(24) @.str.96, ptr noundef nonnull align 8 dereferenceable(201) %36)
          to label %37 unwind label %38

37:                                               ; preds = %30
  tail call void @__cxa_throw(ptr nonnull %31, ptr nonnull @_ZTIN3nix8SysErrorE, ptr nonnull @_ZN3nix8SysErrorD2Ev) #34
  unreachable

38:                                               ; preds = %30
  %39 = landingpad { ptr, i32 }
          cleanup
  br label %41

40:                                               ; preds = %21, %1, %17
  ret void

41:                                               ; preds = %38, %15
  %.sink = phi ptr [ %31, %38 ], [ %13, %15 ]
  %.pn = phi { ptr, i32 } [ %39, %38 ], [ %16, %15 ]
  tail call void @__cxa_free_exception(ptr %.sink) #33
  resume { ptr, i32 } %.pn
}